; Function Attrs: nounwind uwtable
define range(i32 -1, 1) i32 @H5AC_expunge_tag_type_metadata(ptr noundef %0, i64 noundef %1, i32 noundef %2, i32 noundef %3) local_unnamed_addr #4 {
  %5 = load i8, ptr @H5AC_init_g, align 1, !tbaa !3, !range !7, !noundef !8
  %6 = trunc nuw i8 %5 to i1
  %7 = load i8, ptr @H5_libterm_g, align 1, !range !7
  %8 = trunc nuw i8 %7 to i1
  %9 = select i1 %6, i1 true, i1 %8
  br i1 %9, label %10, label %.thread, !prof !9

.thread:                                          ; preds = %4
  store i8 1, ptr @H5AC_init_g, align 1, !tbaa !3
  br label %13

10:                                               ; preds = %4
  %11 = xor i1 %8, true
  %12 = select i1 %6, i1 true, i1 %11
  br i1 %12, label %13, label %20, !prof !41

13:                                               ; preds = %.thread, %10
  %14 = tail call i32 @H5C_expunge_tag_type_metadata(ptr noundef %0, i64 noundef %1, i32 noundef %2, i32 noundef %3) #8
  %15 = icmp slt i32 %14, 0
  br i1 %15, label %16, label %20

16:                                               ; preds = %13
  %17 = load i64, ptr @H5E_CACHE_g, align 8, !tbaa !42
  %18 = load i64, ptr @H5E_CANTFLUSH_g, align 8, !tbaa !42
  %19 = tail call i32 (ptr, ptr, i32, i64, i64, ptr, ...) @H5E_printf_stack(ptr noundef nonnull @.str, ptr noundef nonnull @__func__.H5AC_expunge_tag_type_metadata, i32 noundef 2275, i64 noundef %17, i64 noundef %18, ptr noundef nonnull @.str.63) #8
  br label %20

20:                                               ; preds = %16, %13, %10
  %.0 = phi i32 [ -1, %16 ], [ 0, %13 ], [ 0, %10 ]
  ret i32 %.0
}